target datalayout = "e-m:e-p270:32:32-p271:32:32-p272:64:64-i64:64-i128:128-f80:128-n8:16:32:64-S128"
target triple = "x86_64-pc-linux-gnu"

@hf_cigi3_line_of_sight_extended_response_los_id = internal global i32 0, align 4
@hf_cigi3_line_of_sight_extended_response_valid = internal global i32 0, align 4
@hf_cigi3_line_of_sight_extended_response_entity_id_valid = internal global i32 0, align 4
@hf_cigi3_line_of_sight_extended_response_range_valid = internal global i32 0, align 4
@hf_cigi3_line_of_sight_extended_response_visible = internal global i32 0, align 4
@hf_cigi3_line_of_sight_extended_response_response_count = internal global i32 0, align 4
@hf_cigi3_line_of_sight_extended_response_entity_id = internal global i32 0, align 4
@hf_cigi3_line_of_sight_extended_response_range = internal global i32 0, align 4
@hf_cigi3_line_of_sight_extended_response_lat_xoff = internal global i32 0, align 4
@hf_cigi3_line_of_sight_extended_response_lon_yoff = internal global i32 0, align 4
@hf_cigi3_line_of_sight_extended_response_alt_zoff = internal global i32 0, align 4
@hf_cigi3_line_of_sight_extended_response_red = internal global i32 0, align 4
@hf_cigi3_line_of_sight_extended_response_green = internal global i32 0, align 4
@hf_cigi3_line_of_sight_extended_response_blue = internal global i32 0, align 4
@hf_cigi3_line_of_sight_extended_response_alpha = internal global i32 0, align 4
@hf_cigi3_line_of_sight_extended_response_material_code = internal global i32 0, align 4
@hf_cigi3_line_of_sight_extended_response_normal_vector_azimuth = internal global i32 0, align 4
@hf_cigi3_line_of_sight_extended_response_normal_vector_elevation = internal global i32 0, align 4
@hf_cigi3_2_line_of_sight_extended_response_host_frame_number_lsn = internal global i32 0, align 4
@cigi_byte_order = internal global i32 0, align 4

; Function Attrs: null_pointer_is_valid sspstrong uwtable
define internal i32 @cigi4_add_line_of_sight_extended_response(ptr noundef %0, ptr noundef %1, ptr noundef %2, ptr noundef %3) #0 {
  %5 = alloca ptr, align 8
  %6 = alloca ptr, align 8
  %7 = alloca ptr, align 8
  %8 = alloca ptr, align 8
  %9 = alloca i32, align 4
  store ptr %0, ptr %5, align 8
  store ptr %1, ptr %6, align 8
  store ptr %2, ptr %7, align 8
  store ptr %3, ptr %8, align 8
  call void @llvm.lifetime.start.p0(i64 4, ptr %9) #5
  store i32 0, ptr %9, align 4
  %10 = load ptr, ptr %7, align 8
  %11 = load i32, ptr @hf_cigi3_line_of_sight_extended_response_los_id, align 4
  %12 = load ptr, ptr %5, align 8
  %13 = load i32, ptr %9, align 4
  %14 = load i32, ptr @cigi_byte_order, align 4
  %15 = call ptr @proto_tree_add_item(ptr noundef %10, i32 noundef %11, ptr noundef %12, i32 noundef %13, i32 noundef 2, i32 noundef %14)
  %16 = load i32, ptr %9, align 4
  %17 = add i32 %16, 2
  store i32 %17, ptr %9, align 4
  %18 = load ptr, ptr %7, align 8
  %19 = load i32, ptr @hf_cigi3_line_of_sight_extended_response_entity_id, align 4
  %20 = load ptr, ptr %5, align 8
  %21 = load i32, ptr %9, align 4
  %22 = load i32, ptr @cigi_byte_order, align 4
  %23 = call ptr @proto_tree_add_item(ptr noundef %18, i32 noundef %19, ptr noundef %20, i32 noundef %21, i32 noundef 2, i32 noundef %22)
  %24 = load i32, ptr %9, align 4
  %25 = add i32 %24, 2
  store i32 %25, ptr %9, align 4
  %26 = load ptr, ptr %7, align 8
  %27 = load i32, ptr @hf_cigi3_line_of_sight_extended_response_valid, align 4
  %28 = load ptr, ptr %5, align 8
  %29 = load i32, ptr %9, align 4
  %30 = load i32, ptr @cigi_byte_order, align 4
  %31 = call ptr @proto_tree_add_item(ptr noundef %26, i32 noundef %27, ptr noundef %28, i32 noundef %29, i32 noundef 1, i32 noundef %30)
  %32 = load ptr, ptr %7, align 8
  %33 = load i32, ptr @hf_cigi3_line_of_sight_extended_response_entity_id_valid, align 4
  %34 = load ptr, ptr %5, align 8
  %35 = load i32, ptr %9, align 4
  %36 = load i32, ptr @cigi_byte_order, align 4
  %37 = call ptr @proto_tree_add_item(ptr noundef %32, i32 noundef %33, ptr noundef %34, i32 noundef %35, i32 noundef 1, i32 noundef %36)
  %38 = load ptr, ptr %7, align 8
  %39 = load i32, ptr @hf_cigi3_line_of_sight_extended_response_range_valid, align 4
  %40 = load ptr, ptr %5, align 8
  %41 = load i32, ptr %9, align 4
  %42 = load i32, ptr @cigi_byte_order, align 4
  %43 = call ptr @proto_tree_add_item(ptr noundef %38, i32 noundef %39, ptr noundef %40, i32 noundef %41, i32 noundef 1, i32 noundef %42)
  %44 = load ptr, ptr %7, align 8
  %45 = load i32, ptr @hf_cigi3_line_of_sight_extended_response_visible, align 4
  %46 = load ptr, ptr %5, align 8
  %47 = load i32, ptr %9, align 4
  %48 = load i32, ptr @cigi_byte_order, align 4
  %49 = call ptr @proto_tree_add_item(ptr noundef %44, i32 noundef %45, ptr noundef %46, i32 noundef %47, i32 noundef 1, i32 noundef %48)
  %50 = load ptr, ptr %7, align 8
  %51 = load i32, ptr @hf_cigi3_2_line_of_sight_extended_response_host_frame_number_lsn, align 4
  %52 = load ptr, ptr %5, align 8
  %53 = load i32, ptr %9, align 4
  %54 = load i32, ptr @cigi_byte_order, align 4
  %55 = call ptr @proto_tree_add_item(ptr noundef %50, i32 noundef %51, ptr noundef %52, i32 noundef %53, i32 noundef 1, i32 noundef %54)
  %56 = load i32, ptr %9, align 4
  %57 = add i32 %56, 1
  store i32 %57, ptr %9, align 4
  %58 = load ptr, ptr %7, align 8
  %59 = load i32, ptr @hf_cigi3_line_of_sight_extended_response_response_count, align 4
  %60 = load ptr, ptr %5, align 8
  %61 = load i32, ptr %9, align 4
  %62 = load i32, ptr @cigi_byte_order, align 4
  %63 = call ptr @proto_tree_add_item(ptr noundef %58, i32 noundef %59, ptr noundef %60, i32 noundef %61, i32 noundef 1, i32 noundef %62)
  %64 = load i32, ptr %9, align 4
  %65 = add i32 %64, 7
  store i32 %65, ptr %9, align 4
  %66 = load ptr, ptr %7, align 8
  %67 = load i32, ptr @hf_cigi3_line_of_sight_extended_response_range, align 4
  %68 = load ptr, ptr %5, align 8
  %69 = load i32, ptr %9, align 4
  %70 = load i32, ptr @cigi_byte_order, align 4
  %71 = call ptr @proto_tree_add_item(ptr noundef %66, i32 noundef %67, ptr noundef %68, i32 noundef %69, i32 noundef 8, i32 noundef %70)
  %72 = load i32, ptr %9, align 4
  %73 = add i32 %72, 8
  store i32 %73, ptr %9, align 4
  %74 = load ptr, ptr %7, align 8
  %75 = load i32, ptr @hf_cigi3_line_of_sight_extended_response_lat_xoff, align 4
  %76 = load ptr, ptr %5, align 8
  %77 = load i32, ptr %9, align 4
  %78 = load i32, ptr @cigi_byte_order, align 4
  %79 = call ptr @proto_tree_add_item(ptr noundef %74, i32 noundef %75, ptr noundef %76, i32 noundef %77, i32 noundef 8, i32 noundef %78)
  %80 = load i32, ptr %9, align 4
  %81 = add i32 %80, 8
  store i32 %81, ptr %9, align 4
  %82 = load ptr, ptr %7, align 8
  %83 = load i32, ptr @hf_cigi3_line_of_sight_extended_response_lon_yoff, align 4
  %84 = load ptr, ptr %5, align 8
  %85 = load i32, ptr %9, align 4
  %86 = load i32, ptr @cigi_byte_order, align 4
  %87 = call ptr @proto_tree_add_item(ptr noundef %82, i32 noundef %83, ptr noundef %84, i32 noundef %85, i32 noundef 8, i32 noundef %86)
  %88 = load i32, ptr %9, align 4
  %89 = add i32 %88, 8
  store i32 %89, ptr %9, align 4
  %90 = load ptr, ptr %7, align 8
  %91 = load i32, ptr @hf_cigi3_line_of_sight_extended_response_alt_zoff, align 4
  %92 = load ptr, ptr %5, align 8
  %93 = load i32, ptr %9, align 4
  %94 = load i32, ptr @cigi_byte_order, align 4
  %95 = call ptr @proto_tree_add_item(ptr noundef %90, i32 noundef %91, ptr noundef %92, i32 noundef %93, i32 noundef 8, i32 noundef %94)
  %96 = load i32, ptr %9, align 4
  %97 = add i32 %96, 8
  store i32 %97, ptr %9, align 4
  %98 = load ptr, ptr %7, align 8
  %99 = load i32, ptr @hf_cigi3_line_of_sight_extended_response_red, align 4
  %100 = load ptr, ptr %5, align 8
  %101 = load i32, ptr %9, align 4
  %102 = load i32, ptr @cigi_byte_order, align 4
  %103 = call ptr @proto_tree_add_item(ptr noundef %98, i32 noundef %99, ptr noundef %100, i32 noundef %101, i32 noundef 1, i32 noundef %102)
  %104 = load i32, ptr %9, align 4
  %105 = add i32 %104, 1
  store i32 %105, ptr %9, align 4
  %106 = load ptr, ptr %7, align 8
  %107 = load i32, ptr @hf_cigi3_line_of_sight_extended_response_green, align 4
  %108 = load ptr, ptr %5, align 8
  %109 = load i32, ptr %9, align 4
  %110 = load i32, ptr @cigi_byte_order, align 4
  %111 = call ptr @proto_tree_add_item(ptr noundef %106, i32 noundef %107, ptr noundef %108, i32 noundef %109, i32 noundef 1, i32 noundef %110)
  %112 = load i32, ptr %9, align 4
  %113 = add i32 %112, 1
  store i32 %113, ptr %9, align 4
  %114 = load ptr, ptr %7, align 8
  %115 = load i32, ptr @hf_cigi3_line_of_sight_extended_response_blue, align 4
  %116 = load ptr, ptr %5, align 8
  %117 = load i32, ptr %9, align 4
  %118 = load i32, ptr @cigi_byte_order, align 4
  %119 = call ptr @proto_tree_add_item(ptr noundef %114, i32 noundef %115, ptr noundef %116, i32 noundef %117, i32 noundef 1, i32 noundef %118)
  %120 = load i32, ptr %9, align 4
  %121 = add i32 %120, 1
  store i32 %121, ptr %9, align 4
  %122 = load ptr, ptr %7, align 8
  %123 = load i32, ptr @hf_cigi3_line_of_sight_extended_response_alpha, align 4
  %124 = load ptr, ptr %5, align 8
  %125 = load i32, ptr %9, align 4
  %126 = load i32, ptr @cigi_byte_order, align 4
  %127 = call ptr @proto_tree_add_item(ptr noundef %122, i32 noundef %123, ptr noundef %124, i32 noundef %125, i32 noundef 1, i32 noundef %126)
  %128 = load i32, ptr %9, align 4
  %129 = add i32 %128, 1
  store i32 %129, ptr %9, align 4
  %130 = load ptr, ptr %7, align 8
  %131 = load i32, ptr @hf_cigi3_line_of_sight_extended_response_material_code, align 4
  %132 = load ptr, ptr %5, align 8
  %133 = load i32, ptr %9, align 4
  %134 = load i32, ptr @cigi_byte_order, align 4
  %135 = call ptr @proto_tree_add_item(ptr noundef %130, i32 noundef %131, ptr noundef %132, i32 noundef %133, i32 noundef 4, i32 noundef %134)
  %136 = load i32, ptr %9, align 4
  %137 = add i32 %136, 4
  store i32 %137, ptr %9, align 4
  %138 = load ptr, ptr %7, align 8
  %139 = load i32, ptr @hf_cigi3_line_of_sight_extended_response_normal_vector_azimuth, align 4
  %140 = load ptr, ptr %5, align 8
  %141 = load i32, ptr %9, align 4
  %142 = load i32, ptr @cigi_byte_order, align 4
  %143 = call ptr @proto_tree_add_item(ptr noundef %138, i32 noundef %139, ptr noundef %140, i32 noundef %141, i32 noundef 4, i32 noundef %142)
  %144 = load i32, ptr %9, align 4
  %145 = add i32 %144, 4
  store i32 %145, ptr %9, align 4
  %146 = load ptr, ptr %7, align 8
  %147 = load i32, ptr @hf_cigi3_line_of_sight_extended_response_normal_vector_elevation, align 4
  %148 = load ptr, ptr %5, align 8
  %149 = load i32, ptr %9, align 4
  %150 = load i32, ptr @cigi_byte_order, align 4
  %151 = call ptr @proto_tree_add_item(ptr noundef %146, i32 noundef %147, ptr noundef %148, i32 noundef %149, i32 noundef 4, i32 noundef %150)
  %152 = load i32, ptr %9, align 4
  %153 = add i32 %152, 4
  store i32 %153, ptr %9, align 4
  %154 = load i32, ptr %9, align 4
  call void @llvm.lifetime.end.p0(i64 4, ptr %9) #5
  ret i32 %154
}